; Function Attrs: nounwind uwtable
define dso_local range(i32 -30, 1) i32 @archive_match_include_date_w(ptr noundef %0, i32 noundef %1, ptr noundef %2) local_unnamed_addr #0 {
  %4 = alloca %struct.archive_string, align 8
  %5 = tail call i32 @__archive_check_magic(ptr noundef %0, i32 noundef 212668873, i32 noundef 1, ptr noundef nonnull @.str.19) #14
  %.not14.i = icmp eq i32 %5, -30
  br i1 %.not14.i, label %validate_time_flag.exit.thread, label %6

6:                                                ; preds = %3
  %7 = and i32 %1, 64512
  %.not.i = icmp eq i32 %7, 0
  br i1 %.not.i, label %8, label %.sink.split.i

8:                                                ; preds = %6
  %9 = and i32 %1, 768
  %10 = icmp eq i32 %9, 0
  br i1 %10, label %.sink.split.i, label %11

11:                                               ; preds = %8
  %12 = and i32 %1, 236
  %.not13.i = icmp eq i32 %12, 0
  br i1 %.not13.i, label %13, label %.sink.split.i

13:                                               ; preds = %11
  %14 = and i32 %1, 19
  %15 = icmp eq i32 %14, 0
  br i1 %15, label %.sink.split.i, label %validate_time_flag.exit

.sink.split.i:                                    ; preds = %13, %11, %8, %6
  %.str.38.sink.i = phi ptr [ @.str.35, %6 ], [ @.str.36, %8 ], [ @.str.37, %11 ], [ @.str.38, %13 ]
  tail call void (ptr, i32, ptr, ...) @archive_set_error(ptr noundef %0, i32 noundef 22, ptr noundef nonnull %.str.38.sink.i) #14
  br label %validate_time_flag.exit.thread

validate_time_flag.exit:                          ; preds = %13
  call void @llvm.lifetime.start.p0(i64 24, ptr nonnull %4) #14
  %16 = icmp eq ptr %2, null
  br i1 %16, label %20, label %17

17:                                               ; preds = %validate_time_flag.exit
  %18 = load i32, ptr %2, align 4, !tbaa !51
  %19 = icmp eq i32 %18, 0
  br i1 %19, label %20, label %21

20:                                               ; preds = %17, %validate_time_flag.exit
  tail call void (ptr, i32, ptr, ...) @archive_set_error(ptr noundef %0, i32 noundef 22, ptr noundef nonnull @.str.39) #14
  br label %set_timefilter_date_w.exit

21:                                               ; preds = %17
  call void @llvm.memset.p0.i64(ptr noundef nonnull align 8 dereferenceable(24) %4, i8 0, i64 24, i1 false)
  %22 = tail call i64 @wcslen(ptr noundef nonnull %2) #16
  %23 = call i32 @archive_string_append_from_wcs(ptr noundef nonnull %4, ptr noundef nonnull %2, i64 noundef %22) #14
  %24 = icmp slt i32 %23, 0
  br i1 %24, label %25, label %32

25:                                               ; preds = %21
  call void @archive_string_free(ptr noundef nonnull %4) #14
  %26 = tail call ptr @__errno_location() #15
  %27 = load i32, ptr %26, align 4, !tbaa !51
  %28 = icmp eq i32 %27, 12
  br i1 %28, label %29, label %31

29:                                               ; preds = %25
  call void (ptr, i32, ptr, ...) @archive_set_error(ptr noundef %0, i32 noundef 12, ptr noundef nonnull @.str.32) #14
  %30 = getelementptr inbounds nuw i8, ptr %0, i64 4
  store i32 32768, ptr %30, align 4, !tbaa !27
  br label %set_timefilter_date_w.exit

31:                                               ; preds = %25
  call void (ptr, i32, ptr, ...) @archive_set_error(ptr noundef %0, i32 noundef -1, ptr noundef nonnull @.str.41) #14
  br label %set_timefilter_date_w.exit

32:                                               ; preds = %21
  %33 = getelementptr inbounds nuw i8, ptr %0, i64 232
  %34 = load i64, ptr %33, align 8, !tbaa !97
  %35 = load ptr, ptr %4, align 8, !tbaa !90
  %36 = call i64 @__archive_get_date(i64 noundef %34, ptr noundef %35) #14
  call void @archive_string_free(ptr noundef nonnull %4) #14
  %37 = icmp eq i64 %36, -1
  br i1 %37, label %38, label %39

38:                                               ; preds = %32
  call void (ptr, i32, ptr, ...) @archive_set_error(ptr noundef nonnull %0, i32 noundef 22, ptr noundef nonnull @.str.40) #14
  br label %set_timefilter_date_w.exit

39:                                               ; preds = %32
  %40 = and i32 %1, 256
  %.not.i.i = icmp eq i32 %40, 0
  br i1 %.not.i.i, label %63, label %41

41:                                               ; preds = %39
  %42 = and i32 %1, 1
  %.not37.i.i = icmp ne i32 %42, 0
  %43 = and i32 %1, 18
  %44 = icmp eq i32 %43, 16
  %or.cond.i.i = or i1 %.not37.i.i, %44
  br i1 %or.cond.i.i, label %45, label %52

45:                                               ; preds = %41
  %46 = getelementptr inbounds nuw i8, ptr %0, i64 240
  store i32 %1, ptr %46, align 8, !tbaa !64
  %47 = getelementptr inbounds nuw i8, ptr %0, i64 248
  store i64 %36, ptr %47, align 8, !tbaa !65
  %48 = getelementptr inbounds nuw i8, ptr %0, i64 256
  store i64 0, ptr %48, align 8, !tbaa !66
  %49 = getelementptr inbounds nuw i8, ptr %0, i64 144
  %50 = load i32, ptr %49, align 8, !tbaa !48
  %51 = or i32 %50, 2
  store i32 %51, ptr %49, align 8, !tbaa !48
  br label %52

52:                                               ; preds = %45, %41
  %53 = and i32 %1, 2
  %.not38.i.i = icmp ne i32 %53, 0
  %54 = and i32 %1, 17
  %55 = icmp eq i32 %54, 16
  %or.cond44.i.i = or i1 %.not38.i.i, %55
  br i1 %or.cond44.i.i, label %56, label %63

56:                                               ; preds = %52
  %57 = getelementptr inbounds nuw i8, ptr %0, i64 288
  store i32 %1, ptr %57, align 8, !tbaa !67
  %58 = getelementptr inbounds nuw i8, ptr %0, i64 296
  store i64 %36, ptr %58, align 8, !tbaa !68
  %59 = getelementptr inbounds nuw i8, ptr %0, i64 304
  store i64 0, ptr %59, align 8, !tbaa !69
  %60 = getelementptr inbounds nuw i8, ptr %0, i64 144
  %61 = load i32, ptr %60, align 8, !tbaa !48
  %62 = or i32 %61, 2
  store i32 %62, ptr %60, align 8, !tbaa !48
  br label %63

63:                                               ; preds = %56, %52, %39
  %64 = and i32 %1, 512
  %.not39.i.i = icmp eq i32 %64, 0
  br i1 %.not39.i.i, label %set_timefilter_date_w.exit, label %65

65:                                               ; preds = %63
  %66 = and i32 %1, 1
  %.not40.i.i = icmp ne i32 %66, 0
  %67 = and i32 %1, 18
  %68 = icmp eq i32 %67, 16
  %or.cond46.i.i = or i1 %.not40.i.i, %68
  br i1 %or.cond46.i.i, label %69, label %76

69:                                               ; preds = %65
  %70 = getelementptr inbounds nuw i8, ptr %0, i64 264
  store i32 %1, ptr %70, align 8, !tbaa !58
  %71 = getelementptr inbounds nuw i8, ptr %0, i64 272
  store i64 %36, ptr %71, align 8, !tbaa !59
  %72 = getelementptr inbounds nuw i8, ptr %0, i64 280
  store i64 0, ptr %72, align 8, !tbaa !60
  %73 = getelementptr inbounds nuw i8, ptr %0, i64 144
  %74 = load i32, ptr %73, align 8, !tbaa !48
  %75 = or i32 %74, 2
  store i32 %75, ptr %73, align 8, !tbaa !48
  br label %76

76:                                               ; preds = %69, %65
  %77 = and i32 %1, 2
  %.not41.i.i = icmp ne i32 %77, 0
  %78 = and i32 %1, 17
  %79 = icmp eq i32 %78, 16
  %or.cond48.i.i = or i1 %.not41.i.i, %79
  br i1 %or.cond48.i.i, label %80, label %set_timefilter_date_w.exit

80:                                               ; preds = %76
  %81 = getelementptr inbounds nuw i8, ptr %0, i64 312
  store i32 %1, ptr %81, align 8, !tbaa !61
  %82 = getelementptr inbounds nuw i8, ptr %0, i64 320
  store i64 %36, ptr %82, align 8, !tbaa !62
  %83 = getelementptr inbounds nuw i8, ptr %0, i64 328
  store i64 0, ptr %83, align 8, !tbaa !63
  %84 = getelementptr inbounds nuw i8, ptr %0, i64 144
  %85 = load i32, ptr %84, align 8, !tbaa !48
  %86 = or i32 %85, 2
  store i32 %86, ptr %84, align 8, !tbaa !48
  br label %set_timefilter_date_w.exit

set_timefilter_date_w.exit:                       ; preds = %20, %29, %31, %38, %63, %76, %80
  %.0.i = phi i32 [ -25, %20 ], [ -30, %29 ], [ -25, %31 ], [ -25, %38 ], [ 0, %63 ], [ 0, %76 ], [ 0, %80 ]
  call void @llvm.lifetime.end.p0(i64 24, ptr nonnull %4) #14
  br label %validate_time_flag.exit.thread

validate_time_flag.exit.thread:                   ; preds = %.sink.split.i, %3, %set_timefilter_date_w.exit
  %.0 = phi i32 [ %.0.i, %set_timefilter_date_w.exit ], [ -25, %.sink.split.i ], [ -30, %3 ]
  ret i32 %.0
}